; Function Attrs: nounwind uwtable
define dso_local void @reftable_iterator_destroy(ptr noundef captures(none) %0) local_unnamed_addr #0 {
  %2 = load ptr, ptr %0, align 8, !tbaa !4
  %.not = icmp eq ptr %2, null
  br i1 %.not, label %9, label %3

3:                                                ; preds = %1
  %4 = getelementptr inbounds nuw i8, ptr %2, i64 16
  %5 = load ptr, ptr %4, align 8, !tbaa !36
  %6 = getelementptr inbounds nuw i8, ptr %0, i64 8
  %7 = load ptr, ptr %6, align 8, !tbaa !12
  tail call void %5(ptr noundef %7) #10
  store ptr null, ptr %0, align 8, !tbaa !4
  %8 = load ptr, ptr %6, align 8, !tbaa !12
  tail call void @reftable_free(ptr noundef %8) #10
  store ptr null, ptr %6, align 8, !tbaa !12
  br label %9

9:                                                ; preds = %1, %3
  ret void
}